target datalayout = "e-m:e-p270:32:32-p271:32:32-p272:64:64-i64:64-i128:128-f80:128-n8:16:32:64-S128"
target triple = "x86_64-pc-linux-gnu"

%"class.std::__shared_count" = type { ptr }
%"class.pxrInternal_v0_24__pxrReserved__::TfRefPtr" = type { ptr }
%"class.std::shared_ptr" = type { %"class.std::__shared_ptr" }
%"class.std::__shared_ptr" = type { ptr, %"class.std::__shared_count" }
%"class.pxrInternal_v0_24__pxrReserved__::(anonymous namespace)::_PrimDataSource" = type { %"class.pxrInternal_v0_24__pxrReserved__::HdContainerDataSource", %"class.pxrInternal_v0_24__pxrReserved__::TfRefPtr", %"class.std::shared_ptr" }
%"class.pxrInternal_v0_24__pxrReserved__::HdContainerDataSource" = type { %"class.pxrInternal_v0_24__pxrReserved__::HdDataSourceBase" }
%"class.pxrInternal_v0_24__pxrReserved__::HdDataSourceBase" = type { ptr }
%"class.pxrInternal_v0_24__pxrReserved__::HdMaterialBindingsSchema" = type { %"class.pxrInternal_v0_24__pxrReserved__::HdSchema" }
%"class.pxrInternal_v0_24__pxrReserved__::HdSchema" = type { %"class.std::shared_ptr" }
%"class.std::shared_ptr.29" = type { %"class.std::__shared_ptr.30" }
%"class.std::__shared_ptr.30" = type { ptr, %"class.std::__shared_count" }
%"class.pxrInternal_v0_24__pxrReserved__::HdMaterialBindingSchema" = type { %"class.pxrInternal_v0_24__pxrReserved__::HdSchema" }

; Function Attrs: mustprogress uwtable
define internal void @_ZN32pxrInternal_v0_24__pxrReserved__12_GLOBAL__N_115_PrimDataSource23_GetMaterialBindingPathEv(ptr dead_on_unwind noalias writable sret(%"class.std::shared_ptr.29") align 8 %0, ptr noundef nonnull align 8 dereferenceable(32) %1) #0 align 2 personality ptr @__gxx_personality_v0 {
  %3 = alloca ptr, align 8
  %4 = alloca ptr, align 8
  %5 = alloca %"class.pxrInternal_v0_24__pxrReserved__::HdMaterialBindingsSchema", align 8
  %6 = alloca %"class.pxrInternal_v0_24__pxrReserved__::HdMaterialBindingSchema", align 8
  %7 = alloca ptr, align 8
  %8 = alloca i32, align 4
  store ptr %0, ptr %3, align 8
  store ptr %1, ptr %4, align 8
  %9 = load ptr, ptr %4, align 8
  %10 = getelementptr inbounds nuw %"class.pxrInternal_v0_24__pxrReserved__::(anonymous namespace)::_PrimDataSource", ptr %9, i32 0, i32 2
  call void @_ZN32pxrInternal_v0_24__pxrReserved__24HdMaterialBindingsSchema13GetFromParentERKSt10shared_ptrINS_21HdContainerDataSourceEE(ptr dead_on_unwind writable sret(%"class.pxrInternal_v0_24__pxrReserved__::HdMaterialBindingsSchema") align 8 %5, ptr noundef nonnull align 8 dereferenceable(16) %10)
  invoke void @_ZNK32pxrInternal_v0_24__pxrReserved__24HdMaterialBindingsSchema18GetMaterialBindingEv(ptr dead_on_unwind writable sret(%"class.pxrInternal_v0_24__pxrReserved__::HdMaterialBindingSchema") align 8 %6, ptr noundef nonnull align 8 dereferenceable(16) %5)
          to label %11 unwind label %13

11:                                               ; preds = %2
  invoke void @_ZNK32pxrInternal_v0_24__pxrReserved__23HdMaterialBindingSchema7GetPathEv(ptr dead_on_unwind writable sret(%"class.std::shared_ptr.29") align 8 %0, ptr noundef nonnull align 8 dereferenceable(16) %6)
          to label %12 unwind label %17

12:                                               ; preds = %11
  call void @_ZN32pxrInternal_v0_24__pxrReserved__23HdMaterialBindingSchemaD2Ev(ptr noundef nonnull align 8 dereferenceable(16) %6) #11
  call void @_ZN32pxrInternal_v0_24__pxrReserved__24HdMaterialBindingsSchemaD2Ev(ptr noundef nonnull align 8 dereferenceable(16) %5) #11
  ret void

13:                                               ; preds = %2
  %14 = landingpad { ptr, i32 }
          cleanup
  %15 = extractvalue { ptr, i32 } %14, 0
  store ptr %15, ptr %7, align 8
  %16 = extractvalue { ptr, i32 } %14, 1
  store i32 %16, ptr %8, align 4
  br label %21

17:                                               ; preds = %11
  %18 = landingpad { ptr, i32 }
          cleanup
  %19 = extractvalue { ptr, i32 } %18, 0
  store ptr %19, ptr %7, align 8
  %20 = extractvalue { ptr, i32 } %18, 1
  store i32 %20, ptr %8, align 4
  call void @_ZN32pxrInternal_v0_24__pxrReserved__23HdMaterialBindingSchemaD2Ev(ptr noundef nonnull align 8 dereferenceable(16) %6) #11
  br label %21

21:                                               ; preds = %17, %13
  call void @_ZN32pxrInternal_v0_24__pxrReserved__24HdMaterialBindingsSchemaD2Ev(ptr noundef nonnull align 8 dereferenceable(16) %5) #11
  br label %22

22:                                               ; preds = %21
  %23 = load ptr, ptr %7, align 8
  %24 = load i32, ptr %8, align 4
  %25 = insertvalue { ptr, i32 } poison, ptr %23, 0
  %26 = insertvalue { ptr, i32 } %25, i32 %24, 1
  resume { ptr, i32 } %26
}